; Function Attrs: mustprogress uwtable
define hidden void @_ZN8facebook6hermes17HermesRuntimeImpl4utf8B5cxx11ERKNS_3jsi6StringE(ptr noalias sret(%"class.std::__cxx11::basic_string") align 8 %agg.result, ptr nocapture noundef nonnull readonly align 8 dereferenceable(184) %this, ptr nocapture noundef nonnull readonly align 8 dereferenceable(8) %str) unnamed_addr #0 align 2 {
entry:
  %runtime_ = getelementptr inbounds i8, ptr %this, i64 128
  %0 = load ptr, ptr %runtime_, align 8
  %1 = load ptr, ptr %str, align 8
  %2 = getelementptr inbounds i8, ptr %1, i64 16
  %call6 = tail call { ptr, i64 } @_ZN6hermes2vm15StringPrimitive16createStringViewERNS0_7RuntimeENS0_6HandleIS1_EE(ptr noundef nonnull align 8 dereferenceable(9832) %0, ptr nonnull %2)
  %3 = extractvalue { ptr, i64 } %call6, 0
  %4 = extractvalue { ptr, i64 } %call6, 1
  tail call void @_ZN8facebook6hermes17HermesRuntimeImpl18utf8FromStringViewB5cxx11EN6hermes2vm10StringViewE(ptr sret(%"class.std::__cxx11::basic_string") align 8 %agg.result, ptr nonnull align 8 poison, ptr %3, i64 %4)
  ret void
}